target datalayout = "e-m:e-p270:32:32-p271:32:32-p272:64:64-i64:64-i128:128-f80:128-n8:16:32:64-S128"
target triple = "x86_64-pc-linux-gnu"

%"class.cv::utils::trace::details::Region" = type <{ ptr, i32, [4 x i8] }>

; Function Attrs: inlinehint mustprogress nounwind uwtable
define linkonce_odr noundef float @_ZSt3absf(float noundef %0) #3 comdat {
  %2 = alloca float, align 4
  store float %0, ptr %2, align 4, !tbaa !14
  %3 = load float, ptr %2, align 4, !tbaa !14
  %4 = call float @llvm.fabs.f32(float %3)
  ret float %4
}

; Function Attrs: inlinehint mustprogress uwtable
define internal noundef float @_ZN2cv3hal12cpu_baseline12_GLOBAL__N_18atan_f32Eff(float noundef %0, float noundef %1) #6 {
  %3 = alloca float, align 4
  %4 = alloca float, align 4
  %5 = alloca float, align 4
  %6 = alloca float, align 4
  %7 = alloca float, align 4
  %8 = alloca float, align 4
  %9 = alloca float, align 4
  store float %0, ptr %3, align 4, !tbaa !14
  store float %1, ptr %4, align 4, !tbaa !14
  call void @llvm.lifetime.start.p0(i64 4, ptr %5) #14
  %10 = load float, ptr %4, align 4, !tbaa !14
  %11 = call noundef float @_ZSt3absf(float noundef %10)
  store float %11, ptr %5, align 4, !tbaa !14
  call void @llvm.lifetime.start.p0(i64 4, ptr %6) #14
  %12 = load float, ptr %3, align 4, !tbaa !14
  %13 = call noundef float @_ZSt3absf(float noundef %12)
  store float %13, ptr %6, align 4, !tbaa !14
  call void @llvm.lifetime.start.p0(i64 4, ptr %7) #14
  call void @llvm.lifetime.start.p0(i64 4, ptr %8) #14
  call void @llvm.lifetime.start.p0(i64 4, ptr %9) #14
  %14 = load float, ptr %5, align 4, !tbaa !14
  %15 = load float, ptr %6, align 4, !tbaa !14
  %16 = fcmp oge float %14, %15
  br i1 %16, label %17, label %33

17:                                               ; preds = %2
  %18 = load float, ptr %6, align 4, !tbaa !14
  %19 = load float, ptr %5, align 4, !tbaa !14
  %20 = fadd float %19, 0x3CB0000000000000
  %21 = fdiv float %18, %20
  store float %21, ptr %8, align 4, !tbaa !14
  %22 = load float, ptr %8, align 4, !tbaa !14
  %23 = load float, ptr %8, align 4, !tbaa !14
  %24 = fmul float %22, %23
  store float %24, ptr %9, align 4, !tbaa !14
  %25 = load float, ptr %9, align 4, !tbaa !14
  %26 = call float @llvm.fmuladd.f32(float 0xC004515B20000000, float %25, float 0x4021D3F7E0000000)
  %27 = load float, ptr %9, align 4, !tbaa !14
  %28 = call float @llvm.fmuladd.f32(float %26, float %27, float 0xC032AADDC0000000)
  %29 = load float, ptr %9, align 4, !tbaa !14
  %30 = call float @llvm.fmuladd.f32(float %28, float %29, float 0x404CA44DE0000000)
  %31 = load float, ptr %8, align 4, !tbaa !14
  %32 = fmul float %30, %31
  store float %32, ptr %7, align 4, !tbaa !14
  br label %50

33:                                               ; preds = %2
  %34 = load float, ptr %5, align 4, !tbaa !14
  %35 = load float, ptr %6, align 4, !tbaa !14
  %36 = fadd float %35, 0x3CB0000000000000
  %37 = fdiv float %34, %36
  store float %37, ptr %8, align 4, !tbaa !14
  %38 = load float, ptr %8, align 4, !tbaa !14
  %39 = load float, ptr %8, align 4, !tbaa !14
  %40 = fmul float %38, %39
  store float %40, ptr %9, align 4, !tbaa !14
  %41 = load float, ptr %9, align 4, !tbaa !14
  %42 = call float @llvm.fmuladd.f32(float 0xC004515B20000000, float %41, float 0x4021D3F7E0000000)
  %43 = load float, ptr %9, align 4, !tbaa !14
  %44 = call float @llvm.fmuladd.f32(float %42, float %43, float 0xC032AADDC0000000)
  %45 = load float, ptr %9, align 4, !tbaa !14
  %46 = call float @llvm.fmuladd.f32(float %44, float %45, float 0x404CA44DE0000000)
  %47 = load float, ptr %8, align 4, !tbaa !14
  %48 = fneg float %46
  %49 = call float @llvm.fmuladd.f32(float %48, float %47, float 9.000000e+01)
  store float %49, ptr %7, align 4, !tbaa !14
  br label %50

50:                                               ; preds = %33, %17
  %51 = load float, ptr %4, align 4, !tbaa !14
  %52 = fcmp olt float %51, 0.000000e+00
  br i1 %52, label %53, label %56

53:                                               ; preds = %50
  %54 = load float, ptr %7, align 4, !tbaa !14
  %55 = fsub float 1.800000e+02, %54
  store float %55, ptr %7, align 4, !tbaa !14
  br label %56

56:                                               ; preds = %53, %50
  %57 = load float, ptr %3, align 4, !tbaa !14
  %58 = fcmp olt float %57, 0.000000e+00
  br i1 %58, label %59, label %62

59:                                               ; preds = %56
  %60 = load float, ptr %7, align 4, !tbaa !14
  %61 = fsub float 3.600000e+02, %60
  store float %61, ptr %7, align 4, !tbaa !14
  br label %62

62:                                               ; preds = %59, %56
  %63 = load float, ptr %7, align 4, !tbaa !14
  call void @llvm.lifetime.end.p0(i64 4, ptr %9) #14
  call void @llvm.lifetime.end.p0(i64 4, ptr %8) #14
  call void @llvm.lifetime.end.p0(i64 4, ptr %7) #14
  call void @llvm.lifetime.end.p0(i64 4, ptr %6) #14
  call void @llvm.lifetime.end.p0(i64 4, ptr %5) #14
  ret float %63
}

; Function Attrs: inlinehint mustprogress nounwind uwtable
define linkonce_odr hidden void @_ZN2cv5utils5trace7details6RegionD2Ev(ptr noundef nonnull align 8 dereferenceable(12) %0) unnamed_addr #3 comdat align 2 personality ptr @__gxx_personality_v0 {
  %2 = alloca ptr, align 8
  store ptr %0, ptr %2, align 8, !tbaa !18
  %3 = load ptr, ptr %2, align 8
  %4 = getelementptr inbounds nuw %"class.cv::utils::trace::details::Region", ptr %3, i32 0, i32 1
  %5 = load i32, ptr %4, align 8, !tbaa !20
  %6 = icmp ne i32 %5, 0
  br i1 %6, label %7, label %9

7:                                                ; preds = %1
  invoke void @_ZN2cv5utils5trace7details6Region7destroyEv(ptr noundef nonnull align 8 dereferenceable(12) %3)
          to label %8 unwind label %10

8:                                                ; preds = %7
  br label %9

9:                                                ; preds = %8, %1
  ret void

10:                                               ; preds = %7
  %11 = landingpad { ptr, i32 }
          catch ptr null
  %12 = extractvalue { ptr, i32 } %11, 0
  call void @__clang_call_terminate(ptr %12) #15
  unreachable
}

; Function Attrs: mustprogress uwtable
define internal void @_ZN2cv3hal12cpu_baselineL12fastAtan32f_EPKfS3_Pfib(ptr noundef %0, ptr noundef %1, ptr noundef %2, i32 noundef %3, i1 noundef zeroext %4) #0 {
  %6 = alloca ptr, align 8
  %7 = alloca ptr, align 8
  %8 = alloca ptr, align 8
  %9 = alloca i32, align 4
  %10 = alloca i8, align 1
  %11 = alloca float, align 4
  %12 = alloca i32, align 4
  store ptr %0, ptr %6, align 8, !tbaa !3
  store ptr %1, ptr %7, align 8, !tbaa !3
  store ptr %2, ptr %8, align 8, !tbaa !3
  store i32 %3, ptr %9, align 4, !tbaa !8
  %13 = zext i1 %4 to i8
  store i8 %13, ptr %10, align 1, !tbaa !10
  call void @llvm.lifetime.start.p0(i64 4, ptr %11) #14
  %14 = load i8, ptr %10, align 1, !tbaa !10, !range !12, !noundef !13
  %15 = trunc i8 %14 to i1
  %16 = select i1 %15, float 1.000000e+00, float 0x3F91DF46A0000000
  store float %16, ptr %11, align 4, !tbaa !14
  call void @llvm.lifetime.start.p0(i64 4, ptr %12) #14
  store i32 0, ptr %12, align 4, !tbaa !8
  br label %17

17:                                               ; preds = %39, %5
  %18 = load i32, ptr %12, align 4, !tbaa !8
  %19 = load i32, ptr %9, align 4, !tbaa !8
  %20 = icmp slt i32 %18, %19
  br i1 %20, label %21, label %42

21:                                               ; preds = %17
  %22 = load ptr, ptr %6, align 8, !tbaa !3
  %23 = load i32, ptr %12, align 4, !tbaa !8
  %24 = sext i32 %23 to i64
  %25 = getelementptr inbounds float, ptr %22, i64 %24
  %26 = load float, ptr %25, align 4, !tbaa !14
  %27 = load ptr, ptr %7, align 8, !tbaa !3
  %28 = load i32, ptr %12, align 4, !tbaa !8
  %29 = sext i32 %28 to i64
  %30 = getelementptr inbounds float, ptr %27, i64 %29
  %31 = load float, ptr %30, align 4, !tbaa !14
  %32 = call noundef float @_ZN2cv3hal12cpu_baseline12_GLOBAL__N_18atan_f32Eff(float noundef %26, float noundef %31)
  %33 = load float, ptr %11, align 4, !tbaa !14
  %34 = fmul float %32, %33
  %35 = load ptr, ptr %8, align 8, !tbaa !3
  %36 = load i32, ptr %12, align 4, !tbaa !8
  %37 = sext i32 %36 to i64
  %38 = getelementptr inbounds float, ptr %35, i64 %37
  store float %34, ptr %38, align 4, !tbaa !14
  br label %39

39:                                               ; preds = %21
  %40 = load i32, ptr %12, align 4, !tbaa !8
  %41 = add nsw i32 %40, 1
  store i32 %41, ptr %12, align 4, !tbaa !8
  br label %17, !llvm.loop !33

42:                                               ; preds = %17
  call void @llvm.lifetime.end.p0(i64 4, ptr %12) #14
  call void @llvm.lifetime.end.p0(i64 4, ptr %11) #14
  ret void
}

; Function Attrs: inlinehint mustprogress nounwind uwtable
define linkonce_odr noundef nonnull align 4 dereferenceable(4) ptr @_ZSt3minIiERKT_S2_S2_(ptr noundef nonnull align 4 dereferenceable(4) %0, ptr noundef nonnull align 4 dereferenceable(4) %1) #3 comdat {
  %3 = alloca ptr, align 8
  %4 = alloca ptr, align 8
  %5 = alloca ptr, align 8
  store ptr %0, ptr %4, align 8, !tbaa !31
  store ptr %1, ptr %5, align 8, !tbaa !31
  %6 = load ptr, ptr %5, align 8, !tbaa !31
  %7 = load i32, ptr %6, align 4, !tbaa !8
  %8 = load ptr, ptr %4, align 8, !tbaa !31
  %9 = load i32, ptr %8, align 4, !tbaa !8
  %10 = icmp slt i32 %7, %9
  br i1 %10, label %11, label %13

11:                                               ; preds = %2
  %12 = load ptr, ptr %5, align 8, !tbaa !31
  store ptr %12, ptr %3, align 8
  br label %15

13:                                               ; preds = %2
  %14 = load ptr, ptr %4, align 8, !tbaa !31
  store ptr %14, ptr %3, align 8
  br label %15

15:                                               ; preds = %13, %11
  %16 = load ptr, ptr %3, align 8
  ret ptr %16
}

; Function Attrs: mustprogress uwtable
define hidden void @_ZN2cv3hal12cpu_baseline11fastAtan64fEPKdS3_Pdib(ptr noundef %0, ptr noundef %1, ptr noundef %2, i32 noundef %3, i1 noundef zeroext %4) #0 personality ptr @__gxx_personality_v0 {
  %6 = alloca ptr, align 8
  %7 = alloca ptr, align 8
  %8 = alloca ptr, align 8
  %9 = alloca i32, align 4
  %10 = alloca i8, align 1
  %11 = alloca %"class.cv::utils::trace::details::Region", align 8
  %12 = alloca i32, align 4
  %13 = alloca [128 x float], align 16
  %14 = alloca [128 x float], align 16
  %15 = alloca [128 x float], align 16
  %16 = alloca i32, align 4
  %17 = alloca i32, align 4
  %18 = alloca i32, align 4
  %19 = alloca i32, align 4
  %20 = alloca ptr, align 8
  %21 = alloca i32, align 4
  store ptr %0, ptr %6, align 8, !tbaa !23
  store ptr %1, ptr %7, align 8, !tbaa !23
  store ptr %2, ptr %8, align 8, !tbaa !23
  store i32 %3, ptr %9, align 4, !tbaa !8
  %22 = zext i1 %4 to i8
  store i8 %22, ptr %10, align 1, !tbaa !10
  call void @llvm.lifetime.start.p0(i64 16, ptr %11) #14
  call void @_ZN2cv5utils5trace7details6RegionC1ERKNS3_21LocationStaticStorageE(ptr noundef nonnull align 8 dereferenceable(12) %11, ptr noundef nonnull align 8 dereferenceable(32) @_ZZN2cv3hal12cpu_baseline11fastAtan64fEPKdS3_PdibE25__cv_trace_location_fn245)
  call void @llvm.lifetime.start.p0(i64 4, ptr %12) #14
  store i32 128, ptr %12, align 4, !tbaa !8
  call void @llvm.lifetime.start.p0(i64 512, ptr %13) #14
  call void @llvm.lifetime.start.p0(i64 512, ptr %14) #14
  call void @llvm.lifetime.start.p0(i64 512, ptr %15) #14
  call void @llvm.lifetime.start.p0(i64 4, ptr %16) #14
  store i32 0, ptr %16, align 4, !tbaa !8
  br label %23

23:                                               ; preds = %101, %5
  %24 = load i32, ptr %16, align 4, !tbaa !8
  %25 = load i32, ptr %9, align 4, !tbaa !8
  %26 = icmp slt i32 %24, %25
  br i1 %26, label %28, label %27

27:                                               ; preds = %23
  call void @llvm.lifetime.end.p0(i64 4, ptr %16) #14
  br label %105

28:                                               ; preds = %23
  call void @llvm.lifetime.start.p0(i64 4, ptr %17) #14
  call void @llvm.lifetime.start.p0(i64 4, ptr %18) #14
  call void @llvm.lifetime.start.p0(i64 4, ptr %19) #14
  %29 = load i32, ptr %9, align 4, !tbaa !8
  %30 = load i32, ptr %16, align 4, !tbaa !8
  %31 = sub nsw i32 %29, %30
  store i32 %31, ptr %19, align 4, !tbaa !8
  %32 = invoke noundef nonnull align 4 dereferenceable(4) ptr @_ZSt3minIiERKT_S2_S2_(ptr noundef nonnull align 4 dereferenceable(4) %12, ptr noundef nonnull align 4 dereferenceable(4) %19)
          to label %33 unwind label %65

33:                                               ; preds = %28
  %34 = load i32, ptr %32, align 4, !tbaa !8
  call void @llvm.lifetime.end.p0(i64 4, ptr %19) #14
  store i32 %34, ptr %18, align 4, !tbaa !8
  store i32 0, ptr %17, align 4, !tbaa !8
  br label %35

35:                                               ; preds = %62, %33
  %36 = load i32, ptr %17, align 4, !tbaa !8
  %37 = load i32, ptr %18, align 4, !tbaa !8
  %38 = icmp slt i32 %36, %37
  br i1 %38, label %39, label %69

39:                                               ; preds = %35
  %40 = load ptr, ptr %6, align 8, !tbaa !23
  %41 = load i32, ptr %16, align 4, !tbaa !8
  %42 = load i32, ptr %17, align 4, !tbaa !8
  %43 = add nsw i32 %41, %42
  %44 = sext i32 %43 to i64
  %45 = getelementptr inbounds double, ptr %40, i64 %44
  %46 = load double, ptr %45, align 8, !tbaa !25
  %47 = fptrunc double %46 to float
  %48 = load i32, ptr %17, align 4, !tbaa !8
  %49 = sext i32 %48 to i64
  %50 = getelementptr inbounds [128 x float], ptr %13, i64 0, i64 %49
  store float %47, ptr %50, align 4, !tbaa !14
  %51 = load ptr, ptr %7, align 8, !tbaa !23
  %52 = load i32, ptr %16, align 4, !tbaa !8
  %53 = load i32, ptr %17, align 4, !tbaa !8
  %54 = add nsw i32 %52, %53
  %55 = sext i32 %54 to i64
  %56 = getelementptr inbounds double, ptr %51, i64 %55
  %57 = load double, ptr %56, align 8, !tbaa !25
  %58 = fptrunc double %57 to float
  %59 = load i32, ptr %17, align 4, !tbaa !8
  %60 = sext i32 %59 to i64
  %61 = getelementptr inbounds [128 x float], ptr %14, i64 0, i64 %60
  store float %58, ptr %61, align 4, !tbaa !14
  br label %62

62:                                               ; preds = %39
  %63 = load i32, ptr %17, align 4, !tbaa !8
  %64 = add nsw i32 %63, 1
  store i32 %64, ptr %17, align 4, !tbaa !8
  br label %35, !llvm.loop !34

65:                                               ; preds = %28
  %66 = landingpad { ptr, i32 }
          cleanup
  %67 = extractvalue { ptr, i32 } %66, 0
  store ptr %67, ptr %20, align 8
  %68 = extractvalue { ptr, i32 } %66, 1
  store i32 %68, ptr %21, align 4
  call void @llvm.lifetime.end.p0(i64 4, ptr %19) #14
  br label %104

69:                                               ; preds = %35
  %70 = getelementptr inbounds [128 x float], ptr %13, i64 0, i64 0
  %71 = getelementptr inbounds [128 x float], ptr %14, i64 0, i64 0
  %72 = getelementptr inbounds [128 x float], ptr %15, i64 0, i64 0
  %73 = load i32, ptr %18, align 4, !tbaa !8
  %74 = load i8, ptr %10, align 1, !tbaa !10, !range !12, !noundef !13
  %75 = trunc i8 %74 to i1
  invoke void @_ZN2cv3hal12cpu_baselineL12fastAtan32f_EPKfS3_Pfib(ptr noundef %70, ptr noundef %71, ptr noundef %72, i32 noundef %73, i1 noundef zeroext %75)
          to label %76 unwind label %96

76:                                               ; preds = %69
  store i32 0, ptr %17, align 4, !tbaa !8
  br label %77

77:                                               ; preds = %93, %76
  %78 = load i32, ptr %17, align 4, !tbaa !8
  %79 = load i32, ptr %18, align 4, !tbaa !8
  %80 = icmp slt i32 %78, %79
  br i1 %80, label %81, label %100

81:                                               ; preds = %77
  %82 = load i32, ptr %17, align 4, !tbaa !8
  %83 = sext i32 %82 to i64
  %84 = getelementptr inbounds [128 x float], ptr %15, i64 0, i64 %83
  %85 = load float, ptr %84, align 4, !tbaa !14
  %86 = fpext float %85 to double
  %87 = load ptr, ptr %8, align 8, !tbaa !23
  %88 = load i32, ptr %16, align 4, !tbaa !8
  %89 = load i32, ptr %17, align 4, !tbaa !8
  %90 = add nsw i32 %88, %89
  %91 = sext i32 %90 to i64
  %92 = getelementptr inbounds double, ptr %87, i64 %91
  store double %86, ptr %92, align 8, !tbaa !25
  br label %93

93:                                               ; preds = %81
  %94 = load i32, ptr %17, align 4, !tbaa !8
  %95 = add nsw i32 %94, 1
  store i32 %95, ptr %17, align 4, !tbaa !8
  br label %77, !llvm.loop !35

96:                                               ; preds = %69
  %97 = landingpad { ptr, i32 }
          cleanup
  %98 = extractvalue { ptr, i32 } %97, 0
  store ptr %98, ptr %20, align 8
  %99 = extractvalue { ptr, i32 } %97, 1
  store i32 %99, ptr %21, align 4
  br label %104

100:                                              ; preds = %77
  call void @llvm.lifetime.end.p0(i64 4, ptr %18) #14
  call void @llvm.lifetime.end.p0(i64 4, ptr %17) #14
  br label %101

101:                                              ; preds = %100
  %102 = load i32, ptr %16, align 4, !tbaa !8
  %103 = add nsw i32 %102, 128
  store i32 %103, ptr %16, align 4, !tbaa !8
  br label %23, !llvm.loop !36

104:                                              ; preds = %96, %65
  call void @llvm.lifetime.end.p0(i64 4, ptr %18) #14
  call void @llvm.lifetime.end.p0(i64 4, ptr %17) #14
  call void @llvm.lifetime.end.p0(i64 4, ptr %16) #14
  call void @llvm.lifetime.end.p0(i64 512, ptr %15) #14
  call void @llvm.lifetime.end.p0(i64 512, ptr %14) #14
  call void @llvm.lifetime.end.p0(i64 512, ptr %13) #14
  call void @llvm.lifetime.end.p0(i64 4, ptr %12) #14
  call void @_ZN2cv5utils5trace7details6RegionD2Ev(ptr noundef nonnull align 8 dereferenceable(12) %11) #14
  call void @llvm.lifetime.end.p0(i64 16, ptr %11) #14
  br label %106

105:                                              ; preds = %27
  call void @llvm.lifetime.end.p0(i64 512, ptr %15) #14
  call void @llvm.lifetime.end.p0(i64 512, ptr %14) #14
  call void @llvm.lifetime.end.p0(i64 512, ptr %13) #14
  call void @llvm.lifetime.end.p0(i64 4, ptr %12) #14
  call void @_ZN2cv5utils5trace7details6RegionD2Ev(ptr noundef nonnull align 8 dereferenceable(12) %11) #14
  call void @llvm.lifetime.end.p0(i64 16, ptr %11) #14
  ret void

106:                                              ; preds = %104
  %107 = load ptr, ptr %20, align 8
  %108 = load i32, ptr %21, align 4
  %109 = insertvalue { ptr, i32 } poison, ptr %107, 0
  %110 = insertvalue { ptr, i32 } %109, i32 %108, 1
  resume { ptr, i32 } %110
}