; Function Attrs: mustprogress uwtable
define hidden void @_ZN2cv3hal12cpu_baseline11fastAtan64fEPKdS3_Pdib(ptr noundef readonly captures(none) %0, ptr noundef readonly captures(none) %1, ptr noundef writeonly captures(none) %2, i32 noundef %3, i1 noundef zeroext %4) local_unnamed_addr #0 personality ptr @__gxx_personality_v0 {
  %6 = alloca %"class.cv::utils::trace::details::Region", align 8
  %7 = alloca [128 x float], align 16
  %8 = alloca [128 x float], align 16
  %9 = alloca [128 x float], align 16
  call void @llvm.lifetime.start.p0(i64 16, ptr nonnull %6) #12
  call void @_ZN2cv5utils5trace7details6RegionC1ERKNS3_21LocationStaticStorageE(ptr noundef nonnull align 8 dereferenceable(12) %6, ptr noundef nonnull align 8 dereferenceable(32) @_ZZN2cv3hal12cpu_baseline11fastAtan64fEPKdS3_PdibE25__cv_trace_location_fn245)
  call void @llvm.lifetime.start.p0(i64 512, ptr nonnull %7) #12
  call void @llvm.lifetime.start.p0(i64 512, ptr nonnull %8) #12
  call void @llvm.lifetime.start.p0(i64 512, ptr nonnull %9) #12
  %10 = icmp sgt i32 %3, 0
  br i1 %10, label %.lr.ph38, label %._crit_edge39

.lr.ph38:                                         ; preds = %5
  %11 = select i1 %4, float 1.000000e+00, float 0x3F91DF46A0000000
  %12 = zext nneg i32 %3 to i64
  br label %19

._crit_edge39:                                    ; preds = %._crit_edge35, %5
  call void @llvm.lifetime.end.p0(i64 512, ptr nonnull %9) #12
  call void @llvm.lifetime.end.p0(i64 512, ptr nonnull %8) #12
  call void @llvm.lifetime.end.p0(i64 512, ptr nonnull %7) #12
  %13 = getelementptr inbounds nuw i8, ptr %6, i64 8
  %14 = load i32, ptr %13, align 8, !tbaa !9
  %.not.i = icmp eq i32 %14, 0
  br i1 %.not.i, label %_ZN2cv5utils5trace7details6RegionD2Ev.exit, label %15

15:                                               ; preds = %._crit_edge39
  invoke void @_ZN2cv5utils5trace7details6Region7destroyEv(ptr noundef nonnull align 8 dereferenceable(12) %6)
          to label %_ZN2cv5utils5trace7details6RegionD2Ev.exit unwind label %16

16:                                               ; preds = %15
  %17 = landingpad { ptr, i32 }
          catch ptr null
  %18 = extractvalue { ptr, i32 } %17, 0
  call void @__clang_call_terminate(ptr %18) #13
  unreachable

_ZN2cv5utils5trace7details6RegionD2Ev.exit:       ; preds = %._crit_edge39, %15
  call void @llvm.lifetime.end.p0(i64 16, ptr nonnull %6) #12
  ret void

19:                                               ; preds = %.lr.ph38, %._crit_edge35
  %indvars.iv44 = phi i64 [ 0, %.lr.ph38 ], [ %indvars.iv.next45, %._crit_edge35 ]
  %20 = sub nsw i64 %12, %indvars.iv44
  %21 = trunc nsw i64 %20 to i32
  %.sroa.speculated = call i32 @llvm.smin.i32(i32 %21, i32 128)
  %22 = icmp sgt i64 %20, 0
  br i1 %22, label %.lr.ph.preheader, label %.lr.ph.preheader.i

.lr.ph.preheader:                                 ; preds = %19
  %23 = sext i32 %.sroa.speculated to i64
  br label %.lr.ph

.lr.ph:                                           ; preds = %.lr.ph.preheader, %.lr.ph
  %indvars.iv = phi i64 [ 0, %.lr.ph.preheader ], [ %indvars.iv.next, %.lr.ph ]
  %24 = add nuw nsw i64 %indvars.iv, %indvars.iv44
  %25 = getelementptr inbounds nuw double, ptr %0, i64 %24
  %26 = load double, ptr %25, align 8, !tbaa !14
  %27 = fptrunc double %26 to float
  %28 = getelementptr inbounds nuw [128 x float], ptr %7, i64 0, i64 %indvars.iv
  store float %27, ptr %28, align 4, !tbaa !3
  %29 = getelementptr inbounds nuw double, ptr %1, i64 %24
  %30 = load double, ptr %29, align 8, !tbaa !14
  %31 = fptrunc double %30 to float
  %32 = getelementptr inbounds nuw [128 x float], ptr %8, i64 0, i64 %indvars.iv
  store float %31, ptr %32, align 4, !tbaa !3
  %indvars.iv.next = add nuw nsw i64 %indvars.iv, 1
  %33 = icmp slt i64 %indvars.iv.next, %23
  br i1 %33, label %.lr.ph, label %.lr.ph.preheader.i, !llvm.loop !21

.lr.ph.preheader.i:                               ; preds = %.lr.ph, %19
  %wide.trip.count.i = zext nneg i32 %.sroa.speculated to i64
  br label %.lr.ph.i

.lr.ph.i:                                         ; preds = %_ZN2cv3hal12cpu_baseline12_GLOBAL__N_18atan_f32Eff.exit.i, %.lr.ph.preheader.i
  %indvars.iv.i = phi i64 [ 0, %.lr.ph.preheader.i ], [ %indvars.iv.next.i, %_ZN2cv3hal12cpu_baseline12_GLOBAL__N_18atan_f32Eff.exit.i ]
  %34 = getelementptr inbounds nuw float, ptr %7, i64 %indvars.iv.i
  %35 = load float, ptr %34, align 4, !tbaa !3
  %36 = getelementptr inbounds nuw float, ptr %8, i64 %indvars.iv.i
  %37 = load float, ptr %36, align 4, !tbaa !3
  %38 = call noundef float @llvm.fabs.f32(float %37)
  %39 = call noundef float @llvm.fabs.f32(float %35)
  %40 = fcmp ult float %38, %39
  br i1 %40, label %49, label %41

41:                                               ; preds = %.lr.ph.i
  %42 = fadd float %38, 0x3CB0000000000000
  %43 = fdiv float %39, %42
  %44 = fmul float %43, %43
  %45 = call float @llvm.fmuladd.f32(float %44, float 0xC004515B20000000, float 0x4021D3F7E0000000)
  %46 = call float @llvm.fmuladd.f32(float %45, float %44, float 0xC032AADDC0000000)
  %47 = call float @llvm.fmuladd.f32(float %46, float %44, float 0x404CA44DE0000000)
  %48 = fmul float %43, %47
  br label %_ZN2cv3hal12cpu_baseline12_GLOBAL__N_18atan_f32Eff.exit.i

49:                                               ; preds = %.lr.ph.i
  %50 = fadd float %39, 0x3CB0000000000000
  %51 = fdiv float %38, %50
  %52 = fmul float %51, %51
  %53 = call float @llvm.fmuladd.f32(float %52, float 0xC004515B20000000, float 0x4021D3F7E0000000)
  %54 = call float @llvm.fmuladd.f32(float %53, float %52, float 0xC032AADDC0000000)
  %55 = call float @llvm.fmuladd.f32(float %54, float %52, float 0x404CA44DE0000000)
  %56 = fneg float %55
  %57 = call float @llvm.fmuladd.f32(float %56, float %51, float 9.000000e+01)
  br label %_ZN2cv3hal12cpu_baseline12_GLOBAL__N_18atan_f32Eff.exit.i

_ZN2cv3hal12cpu_baseline12_GLOBAL__N_18atan_f32Eff.exit.i: ; preds = %49, %41
  %.0.i.i = phi float [ %48, %41 ], [ %57, %49 ]
  %58 = fcmp olt float %37, 0.000000e+00
  %59 = fsub float 1.800000e+02, %.0.i.i
  %.1.i.i = select i1 %58, float %59, float %.0.i.i
  %60 = fcmp olt float %35, 0.000000e+00
  %61 = fsub float 3.600000e+02, %.1.i.i
  %.2.i.i = select i1 %60, float %61, float %.1.i.i
  %62 = fmul float %11, %.2.i.i
  %63 = getelementptr inbounds nuw float, ptr %9, i64 %indvars.iv.i
  store float %62, ptr %63, align 4, !tbaa !3
  %indvars.iv.next.i = add nuw nsw i64 %indvars.iv.i, 1
  %exitcond.not.i = icmp eq i64 %indvars.iv.next.i, %wide.trip.count.i
  br i1 %exitcond.not.i, label %_ZN2cv3hal12cpu_baselineL12fastAtan32f_EPKfS3_Pfib.exit.loopexit, label %.lr.ph.i, !llvm.loop !20

_ZN2cv3hal12cpu_baselineL12fastAtan32f_EPKfS3_Pfib.exit.loopexit: ; preds = %_ZN2cv3hal12cpu_baseline12_GLOBAL__N_18atan_f32Eff.exit.i
  br i1 %22, label %.lr.ph34.preheader, label %._crit_edge35

.lr.ph34.preheader:                               ; preds = %_ZN2cv3hal12cpu_baselineL12fastAtan32f_EPKfS3_Pfib.exit.loopexit
  %64 = sext i32 %.sroa.speculated to i64
  %invariant.gep = getelementptr inbounds nuw double, ptr %2, i64 %indvars.iv44
  br label %.lr.ph34

.lr.ph34:                                         ; preds = %.lr.ph34.preheader, %.lr.ph34
  %indvars.iv41 = phi i64 [ 0, %.lr.ph34.preheader ], [ %indvars.iv.next42, %.lr.ph34 ]
  %65 = getelementptr inbounds nuw [128 x float], ptr %9, i64 0, i64 %indvars.iv41
  %66 = load float, ptr %65, align 4, !tbaa !3
  %67 = fpext float %66 to double
  %gep = getelementptr inbounds nuw double, ptr %invariant.gep, i64 %indvars.iv41
  store double %67, ptr %gep, align 8, !tbaa !14
  %indvars.iv.next42 = add nuw nsw i64 %indvars.iv41, 1
  %68 = icmp slt i64 %indvars.iv.next42, %64
  br i1 %68, label %.lr.ph34, label %._crit_edge35, !llvm.loop !22

._crit_edge35:                                    ; preds = %.lr.ph34, %_ZN2cv3hal12cpu_baselineL12fastAtan32f_EPKfS3_Pfib.exit.loopexit
  %indvars.iv.next45 = add nuw nsw i64 %indvars.iv44, 128
  %69 = icmp samesign ult i64 %indvars.iv.next45, %12
  br i1 %69, label %19, label %._crit_edge39, !llvm.loop !23
}